; Function Attrs: nounwind uwtable
define ptr @l_Lean_mkConstWithLevelParams___at_Lean_Elab_OpenDecl_elabOpenDecl___spec__19___rarg___lambda__1(ptr noundef %0, ptr noundef %1, ptr noundef %2) #0 {
  %4 = getelementptr inbounds nuw i8, ptr %2, i64 16
  %5 = load ptr, ptr %4, align 8, !tbaa !4
  %6 = ptrtoint ptr %5 to i64
  %7 = and i64 %6, 1
  %.not = icmp eq i64 %7, 0
  br i1 %.not, label %8, label %lean_inc.exit17

8:                                                ; preds = %3
  %.val.i = load i32, ptr %5, align 4, !tbaa !8
  %9 = icmp sgt i32 %.val.i, 0
  br i1 %9, label %10, label %12, !prof !11

10:                                               ; preds = %8
  %11 = add nuw i32 %.val.i, 1
  store i32 %11, ptr %5, align 4, !tbaa !8
  br label %lean_inc.exit17

12:                                               ; preds = %8
  %.not.i24 = icmp eq i32 %.val.i, 0
  br i1 %.not.i24, label %lean_inc.exit17, label %13

13:                                               ; preds = %12
  tail call void @lean_inc_ref_cold(ptr noundef nonnull %5) #6
  br label %lean_inc.exit17

lean_inc.exit17:                                  ; preds = %13, %12, %10, %3
  %14 = ptrtoint ptr %2 to i64
  %15 = and i64 %14, 1
  %.not31 = icmp eq i64 %15, 0
  br i1 %.not31, label %16, label %lean_dec.exit19

16:                                               ; preds = %lean_inc.exit17
  %17 = load i32, ptr %2, align 4, !tbaa !8
  %18 = icmp sgt i32 %17, 1
  br i1 %18, label %19, label %21, !prof !11

19:                                               ; preds = %16
  %20 = add nsw i32 %17, -1
  store i32 %20, ptr %2, align 4, !tbaa !8
  br label %lean_dec.exit19

21:                                               ; preds = %16
  %.not.i = icmp eq i32 %17, 0
  br i1 %.not.i, label %lean_dec.exit19, label %22

22:                                               ; preds = %21
  tail call void @lean_dec_ref_cold(ptr noundef nonnull %2) #6
  br label %lean_dec.exit19

lean_dec.exit19:                                  ; preds = %22, %21, %19, %lean_inc.exit17
  %23 = tail call ptr @l_List_mapTR_loop___at_Lean_mkConstWithLevelParams___spec__1(ptr noundef %5, ptr noundef nonnull inttoptr (i64 1 to ptr)) #6
  %24 = tail call ptr @l_Lean_Expr_const___override(ptr noundef %0, ptr noundef %23) #6
  %25 = getelementptr inbounds nuw i8, ptr %1, i64 8
  %26 = load ptr, ptr %25, align 8, !tbaa !4
  %27 = ptrtoint ptr %26 to i64
  %28 = and i64 %27, 1
  %.not32 = icmp eq i64 %28, 0
  br i1 %.not32, label %29, label %lean_inc.exit16

29:                                               ; preds = %lean_dec.exit19
  %.val.i25 = load i32, ptr %26, align 4, !tbaa !8
  %30 = icmp sgt i32 %.val.i25, 0
  br i1 %30, label %31, label %33, !prof !11

31:                                               ; preds = %29
  %32 = add nuw i32 %.val.i25, 1
  store i32 %32, ptr %26, align 4, !tbaa !8
  br label %lean_inc.exit16

33:                                               ; preds = %29
  %.not.i26 = icmp eq i32 %.val.i25, 0
  br i1 %.not.i26, label %lean_inc.exit16, label %34

34:                                               ; preds = %33
  tail call void @lean_inc_ref_cold(ptr noundef nonnull %26) #6
  br label %lean_inc.exit16

lean_inc.exit16:                                  ; preds = %34, %33, %31, %lean_dec.exit19
  %35 = ptrtoint ptr %1 to i64
  %36 = and i64 %35, 1
  %.not33 = icmp eq i64 %36, 0
  br i1 %.not33, label %37, label %lean_dec.exit18

37:                                               ; preds = %lean_inc.exit16
  %38 = load i32, ptr %1, align 4, !tbaa !8
  %39 = icmp sgt i32 %38, 1
  br i1 %39, label %40, label %42, !prof !11

40:                                               ; preds = %37
  %41 = add nsw i32 %38, -1
  store i32 %41, ptr %1, align 4, !tbaa !8
  br label %lean_dec.exit18

42:                                               ; preds = %37
  %.not.i20 = icmp eq i32 %38, 0
  br i1 %.not.i20, label %lean_dec.exit18, label %43

43:                                               ; preds = %42
  tail call void @lean_dec_ref_cold(ptr noundef nonnull %1) #6
  br label %lean_dec.exit18

lean_dec.exit18:                                  ; preds = %43, %42, %40, %lean_inc.exit16
  %44 = getelementptr inbounds nuw i8, ptr %26, i64 16
  %45 = load ptr, ptr %44, align 8, !tbaa !4
  %46 = ptrtoint ptr %45 to i64
  %47 = and i64 %46, 1
  %.not34 = icmp eq i64 %47, 0
  br i1 %.not34, label %48, label %lean_inc.exit

48:                                               ; preds = %lean_dec.exit18
  %.val.i28 = load i32, ptr %45, align 4, !tbaa !8
  %49 = icmp sgt i32 %.val.i28, 0
  br i1 %49, label %50, label %52, !prof !11

50:                                               ; preds = %48
  %51 = add nuw i32 %.val.i28, 1
  store i32 %51, ptr %45, align 4, !tbaa !8
  br label %lean_inc.exit

52:                                               ; preds = %48
  %.not.i29 = icmp eq i32 %.val.i28, 0
  br i1 %.not.i29, label %lean_inc.exit, label %53

53:                                               ; preds = %52
  tail call void @lean_inc_ref_cold(ptr noundef nonnull %45) #6
  br label %lean_inc.exit

lean_inc.exit:                                    ; preds = %53, %52, %50, %lean_dec.exit18
  br i1 %.not32, label %54, label %lean_dec.exit

54:                                               ; preds = %lean_inc.exit
  %55 = load i32, ptr %26, align 4, !tbaa !8
  %56 = icmp sgt i32 %55, 1
  br i1 %56, label %57, label %59, !prof !11

57:                                               ; preds = %54
  %58 = add nsw i32 %55, -1
  store i32 %58, ptr %26, align 4, !tbaa !8
  br label %lean_dec.exit

59:                                               ; preds = %54
  %.not.i22 = icmp eq i32 %55, 0
  br i1 %.not.i22, label %lean_dec.exit, label %60

60:                                               ; preds = %59
  tail call void @lean_dec_ref_cold(ptr noundef nonnull %26) #6
  br label %lean_dec.exit

lean_dec.exit:                                    ; preds = %60, %59, %57, %lean_inc.exit
  %61 = tail call ptr @lean_apply_2(ptr noundef %45, ptr noundef nonnull inttoptr (i64 1 to ptr), ptr noundef %24) #6
  ret ptr %61
}